; Function Attrs: mustprogress nofree norecurse nosync nounwind memory(readwrite, inaccessiblemem: none) uwtable
define void @_ZN3g2o15SparseOptimizer17clearIndexMappingEv(ptr nocapture noundef nonnull readonly align 8 dereferenceable(409) %0) local_unnamed_addr #8 align 2 {
  %2 = getelementptr inbounds nuw i8, ptr %0, i64 304
  %3 = getelementptr inbounds i8, ptr %0, i64 312
  %4 = load ptr, ptr %3, align 8
  %5 = load ptr, ptr %2, align 8
  %.not = icmp eq ptr %4, %5
  br i1 %.not, label %._crit_edge, label %.lr.ph

.lr.ph:                                           ; preds = %1, %.lr.ph
  %6 = phi ptr [ %14, %.lr.ph ], [ %5, %1 ]
  %.04 = phi i64 [ %12, %.lr.ph ], [ 0, %1 ]
  %7 = getelementptr inbounds ptr, ptr %6, i64 %.04
  %8 = load ptr, ptr %7, align 8
  %9 = getelementptr inbounds nuw i8, ptr %8, i64 96
  store i32 -1, ptr %9, align 8
  %10 = load ptr, ptr %2, align 8
  %11 = getelementptr inbounds ptr, ptr %10, i64 %.04
  store ptr null, ptr %11, align 8
  %12 = add nuw i64 %.04, 1
  %13 = load ptr, ptr %3, align 8
  %14 = load ptr, ptr %2, align 8
  %15 = ptrtoint ptr %13 to i64
  %16 = ptrtoint ptr %14 to i64
  %17 = sub i64 %15, %16
  %18 = ashr exact i64 %17, 3
  %19 = icmp ult i64 %12, %18
  br i1 %19, label %.lr.ph, label %._crit_edge, !llvm.loop !16

._crit_edge:                                      ; preds = %.lr.ph, %1
  ret void
}